target datalayout = "e-m:e-p270:32:32-p271:32:32-p272:64:64-i64:64-i128:128-f80:128-n8:16:32:64-S128"
target triple = "x86_64-pc-linux-gnu"

%struct.hashipv4 = type { i32, i8, [16 x i8], [256 x i8], [19 x i8] }

@addr_resolv_scope = internal global ptr null, align 8
@ipv4_hash_table = internal global ptr null, align 8
@new_resolved_objects = internal global i8 0, align 1

; Function Attrs: null_pointer_is_valid sspstrong uwtable
define ptr @new_ipv4(i32 noundef %0) #3 {
  %2 = alloca i32, align 4
  %3 = alloca ptr, align 8
  store i32 %0, ptr %2, align 4
  call void @llvm.lifetime.start.p0(i64 8, ptr %3) #16
  %4 = load ptr, ptr @addr_resolv_scope, align 8
  %5 = call noalias ptr @wmem_alloc(ptr noundef %4, i64 noundef 296) #19
  store ptr %5, ptr %3, align 8
  %6 = load i32, ptr %2, align 4
  %7 = load ptr, ptr %3, align 8
  %8 = getelementptr inbounds nuw %struct.hashipv4, ptr %7, i32 0, i32 0
  store i32 %6, ptr %8, align 4
  %9 = load ptr, ptr %3, align 8
  %10 = getelementptr inbounds nuw %struct.hashipv4, ptr %9, i32 0, i32 1
  store i8 0, ptr %10, align 4
  %11 = load ptr, ptr %3, align 8
  %12 = getelementptr inbounds nuw %struct.hashipv4, ptr %11, i32 0, i32 3
  %13 = getelementptr [256 x i8], ptr %12, i64 0, i64 0
  store i8 0, ptr %13, align 1
  %14 = load ptr, ptr %3, align 8
  %15 = getelementptr inbounds nuw %struct.hashipv4, ptr %14, i32 0, i32 2
  %16 = getelementptr inbounds [16 x i8], ptr %15, i64 0, i64 0
  call void @ip_addr_to_str_buf(ptr noundef %2, ptr noundef %16, i32 noundef 16)
  %17 = load ptr, ptr %3, align 8
  call void @llvm.lifetime.end.p0(i64 8, ptr %3) #16
  ret ptr %17
}

; Function Attrs: null_pointer_is_valid sspstrong uwtable
define void @add_ipv4_name(i32 noundef %0, ptr noundef %1, i1 noundef zeroext %2) #3 {
  %4 = alloca i32, align 4
  %5 = alloca ptr, align 8
  %6 = alloca i8, align 1
  %7 = alloca ptr, align 8
  %8 = alloca i32, align 4
  store i32 %0, ptr %4, align 4
  store ptr %1, ptr %5, align 8
  %9 = zext i1 %2 to i8
  store i8 %9, ptr %6, align 1
  call void @llvm.lifetime.start.p0(i64 8, ptr %7) #16
  %10 = load ptr, ptr %5, align 8
  %11 = icmp ne ptr %10, null
  br i1 %11, label %12, label %18

12:                                               ; preds = %3
  %13 = load ptr, ptr %5, align 8
  %14 = getelementptr i8, ptr %13, i64 0
  %15 = load i8, ptr %14, align 1
  %16 = sext i8 %15 to i32
  %17 = icmp eq i32 %16, 0
  br i1 %17, label %18, label %19

18:                                               ; preds = %12, %3
  store i32 1, ptr %8, align 4
  br label %76

19:                                               ; preds = %12
  %20 = load ptr, ptr @ipv4_hash_table, align 8
  %21 = load i32, ptr %4, align 4
  %22 = zext i32 %21 to i64
  %23 = inttoptr i64 %22 to ptr
  %24 = call ptr @wmem_map_lookup(ptr noundef %20, ptr noundef %23)
  store ptr %24, ptr %7, align 8
  %25 = load ptr, ptr %7, align 8
  %26 = icmp ne ptr %25, null
  br i1 %26, label %36, label %27

27:                                               ; preds = %19
  %28 = load i32, ptr %4, align 4
  %29 = call ptr @new_ipv4(i32 noundef %28)
  store ptr %29, ptr %7, align 8
  %30 = load ptr, ptr @ipv4_hash_table, align 8
  %31 = load i32, ptr %4, align 4
  %32 = zext i32 %31 to i64
  %33 = inttoptr i64 %32 to ptr
  %34 = load ptr, ptr %7, align 8
  %35 = call ptr @wmem_map_insert(ptr noundef %30, ptr noundef %33, ptr noundef %34)
  br label %36

36:                                               ; preds = %27, %19
  %37 = load ptr, ptr %7, align 8
  %38 = getelementptr inbounds nuw %struct.hashipv4, ptr %37, i32 0, i32 3
  %39 = getelementptr inbounds [256 x i8], ptr %38, i64 0, i64 0
  %40 = load ptr, ptr %5, align 8
  %41 = call i32 @g_ascii_strcasecmp(ptr noundef %39, ptr noundef %40)
  %42 = icmp ne i32 %41, 0
  br i1 %42, label %43, label %69

43:                                               ; preds = %36
  %44 = load i8, ptr %6, align 1, !range !8, !noundef !9
  %45 = trunc i8 %44 to i1
  br i1 %45, label %53, label %46

46:                                               ; preds = %43
  %47 = load ptr, ptr %7, align 8
  %48 = getelementptr inbounds nuw %struct.hashipv4, ptr %47, i32 0, i32 1
  %49 = load i8, ptr %48, align 4
  %50 = zext i8 %49 to i32
  %51 = and i32 %50, 8
  %52 = icmp ne i32 %51, 0
  br i1 %52, label %69, label %53

53:                                               ; preds = %46, %43
  %54 = load ptr, ptr %7, align 8
  %55 = getelementptr inbounds nuw %struct.hashipv4, ptr %54, i32 0, i32 3
  %56 = getelementptr inbounds [256 x i8], ptr %55, i64 0, i64 0
  %57 = load ptr, ptr %5, align 8
  %58 = call i64 @g_strlcpy(ptr noundef %56, ptr noundef %57, i64 noundef 256)
  store i8 1, ptr @new_resolved_objects, align 1
  %59 = load i8, ptr %6, align 1, !range !8, !noundef !9
  %60 = trunc i8 %59 to i1
  br i1 %60, label %61, label %68

61:                                               ; preds = %53
  %62 = load ptr, ptr %7, align 8
  %63 = getelementptr inbounds nuw %struct.hashipv4, ptr %62, i32 0, i32 1
  %64 = load i8, ptr %63, align 4
  %65 = zext i8 %64 to i32
  %66 = or i32 %65, 8
  %67 = trunc i32 %66 to i8
  store i8 %67, ptr %63, align 4
  br label %68

68:                                               ; preds = %61, %53
  br label %69

69:                                               ; preds = %68, %46, %36
  %70 = load ptr, ptr %7, align 8
  %71 = getelementptr inbounds nuw %struct.hashipv4, ptr %70, i32 0, i32 1
  %72 = load i8, ptr %71, align 4
  %73 = zext i8 %72 to i32
  %74 = or i32 %73, 3
  %75 = trunc i32 %74 to i8
  store i8 %75, ptr %71, align 4
  store i32 0, ptr %8, align 4
  br label %76

76:                                               ; preds = %69, %18
  call void @llvm.lifetime.end.p0(i64 8, ptr %7) #16
  %77 = load i32, ptr %8, align 4
  switch i32 %77, label %79 [
    i32 0, label %78
    i32 1, label %78
  ]

78:                                               ; preds = %76, %76
  ret void

79:                                               ; preds = %76
  unreachable
}