; Function Attrs: null_pointer_is_valid sspstrong uwtable
define void @add_ipv4_name(i32 noundef %0, ptr noundef %1, i1 noundef zeroext %2) local_unnamed_addr #3 {
  %4 = alloca i32, align 4
  %.not = icmp eq ptr %1, null
  br i1 %.not, label %40, label %5

5:                                                ; preds = %3
  %6 = load i8, ptr %1, align 1
  %7 = icmp eq i8 %6, 0
  br i1 %7, label %40, label %8

8:                                                ; preds = %5
  %9 = load ptr, ptr @ipv4_hash_table, align 8
  %10 = zext i32 %0 to i64
  %11 = inttoptr i64 %10 to ptr
  %12 = tail call ptr @wmem_map_lookup(ptr noundef %9, ptr noundef %11)
  %.not17 = icmp eq ptr %12, null
  br i1 %.not17, label %13, label %21

13:                                               ; preds = %8
  call void @llvm.lifetime.start.p0(i64 4, ptr nonnull %4)
  store i32 %0, ptr %4, align 4
  %14 = load ptr, ptr @addr_resolv_scope, align 8
  %15 = tail call noalias dereferenceable_or_null(296) ptr @wmem_alloc(ptr noundef %14, i64 noundef 296) #26
  store i32 %0, ptr %15, align 4
  %16 = getelementptr inbounds nuw i8, ptr %15, i64 4
  store i8 0, ptr %16, align 4
  %17 = getelementptr inbounds nuw i8, ptr %15, i64 21
  store i8 0, ptr %17, align 1
  %18 = getelementptr inbounds nuw i8, ptr %15, i64 5
  call void @ip_addr_to_str_buf(ptr noundef nonnull %4, ptr noundef nonnull %18, i32 noundef 16)
  call void @llvm.lifetime.end.p0(i64 4, ptr nonnull %4)
  %19 = load ptr, ptr @ipv4_hash_table, align 8
  %20 = call ptr @wmem_map_insert(ptr noundef %19, ptr noundef %11, ptr noundef %15)
  br label %21

21:                                               ; preds = %13, %8
  %.0 = phi ptr [ %12, %8 ], [ %15, %13 ]
  %22 = getelementptr inbounds nuw i8, ptr %.0, i64 21
  %23 = call i32 @g_ascii_strcasecmp(ptr noundef nonnull %22, ptr noundef nonnull %1)
  %.not18 = icmp eq i32 %23, 0
  br i1 %.not18, label %36, label %24

24:                                               ; preds = %21
  br i1 %2, label %31, label %25

25:                                               ; preds = %24
  %26 = getelementptr inbounds nuw i8, ptr %.0, i64 4
  %27 = load i8, ptr %26, align 4
  %28 = and i8 %27, 8
  %.not19 = icmp eq i8 %28, 0
  br i1 %.not19, label %29, label %36

29:                                               ; preds = %25
  %30 = call i64 @g_strlcpy(ptr noundef nonnull %22, ptr noundef nonnull %1, i64 noundef 256)
  store i1 true, ptr @new_resolved_objects, align 1
  br label %36

31:                                               ; preds = %24
  %32 = call i64 @g_strlcpy(ptr noundef nonnull %22, ptr noundef nonnull %1, i64 noundef 256)
  store i1 true, ptr @new_resolved_objects, align 1
  %33 = getelementptr inbounds nuw i8, ptr %.0, i64 4
  %34 = load i8, ptr %33, align 4
  %35 = or i8 %34, 8
  store i8 %35, ptr %33, align 4
  br label %36

36:                                               ; preds = %29, %31, %25, %21
  %37 = getelementptr inbounds nuw i8, ptr %.0, i64 4
  %38 = load i8, ptr %37, align 4
  %39 = or i8 %38, 3
  store i8 %39, ptr %37, align 4
  br label %40

40:                                               ; preds = %3, %5, %36
  ret void
}